target datalayout = "e-m:e-p270:32:32-p271:32:32-p272:64:64-i64:64-i128:128-f80:128-n8:16:32:64-S128"
target triple = "x86_64-pc-linux-gnu"

%class.TestData = type { ptr, ptr, ptr, ptr, ptr, i32, i32, i32, i32 }
%class.RBTestData = type { %class.TestData, ptr, ptr, ptr, ptr }

; Function Attrs: inlinehint mustprogress nounwind uwtable
define internal noundef signext i8 @_ZL9U_SUCCESS10UErrorCode(i32 noundef %0) #5 {
  %2 = alloca i32, align 4
  store i32 %0, ptr %2, align 4, !tbaa !33
  %3 = load i32, ptr %2, align 4, !tbaa !33
  %4 = icmp sle i32 %3, 0
  %5 = zext i1 %4 to i8
  ret i8 %5
}

; Function Attrs: mustprogress uwtable
define noundef signext i8 @_ZN10RBTestData8nextCaseERPK7DataMapR10UErrorCode(ptr noundef nonnull align 8 dereferenceable(88) %0, ptr noundef nonnull align 8 dereferenceable(8) %1, ptr noundef nonnull align 4 dereferenceable(4) %2) unnamed_addr #2 align 2 personality ptr @__gxx_personality_v0 {
  %4 = alloca i8, align 1
  %5 = alloca ptr, align 8
  %6 = alloca ptr, align 8
  %7 = alloca ptr, align 8
  %8 = alloca i32, align 4
  %9 = alloca ptr, align 8
  %10 = alloca ptr, align 8
  %11 = alloca i32, align 4
  %12 = alloca i32, align 4
  store ptr %0, ptr %5, align 8, !tbaa !23
  store ptr %1, ptr %6, align 8, !tbaa !35
  store ptr %2, ptr %7, align 8, !tbaa !32
  %13 = load ptr, ptr %5, align 8
  call void @llvm.lifetime.start.p0(i64 4, ptr %8) #9
  store i32 0, ptr %8, align 4, !tbaa !33
  call void @llvm.lifetime.start.p0(i64 8, ptr %9) #9
  %14 = getelementptr inbounds nuw %class.RBTestData, ptr %13, i32 0, i32 4
  %15 = load ptr, ptr %14, align 8, !tbaa !30
  %16 = getelementptr inbounds nuw %class.TestData, ptr %13, i32 0, i32 8
  %17 = load i32, ptr %16, align 4, !tbaa !22
  %18 = add nsw i32 %17, 1
  store i32 %18, ptr %16, align 4, !tbaa !22
  %19 = call ptr @ures_getByIndex_77(ptr noundef %15, i32 noundef %17, ptr noundef null, ptr noundef %8)
  store ptr %19, ptr %9, align 8, !tbaa !31
  %20 = load i32, ptr %8, align 4, !tbaa !33
  %21 = call noundef signext i8 @_ZL9U_SUCCESS10UErrorCode(i32 noundef %20)
  %22 = icmp ne i8 %21, 0
  br i1 %22, label %23, label %51

23:                                               ; preds = %3
  %24 = getelementptr inbounds nuw %class.TestData, ptr %13, i32 0, i32 4
  %25 = load ptr, ptr %24, align 8, !tbaa !18
  %26 = icmp eq ptr %25, null
  br i1 %26, label %27, label %39

27:                                               ; preds = %23
  %28 = call noalias noundef nonnull ptr @_Znwm(i64 noundef 16) #11
  %29 = getelementptr inbounds nuw %class.RBTestData, ptr %13, i32 0, i32 2
  %30 = load ptr, ptr %29, align 8, !tbaa !28
  %31 = load ptr, ptr %9, align 8, !tbaa !31
  %32 = load ptr, ptr %7, align 8, !tbaa !32
  invoke void @_ZN9RBDataMapC1EP15UResourceBundleS1_R10UErrorCode(ptr noundef nonnull align 8 dereferenceable(16) %28, ptr noundef %30, ptr noundef %31, ptr noundef nonnull align 4 dereferenceable(4) %32)
          to label %33 unwind label %35

33:                                               ; preds = %27
  %34 = getelementptr inbounds nuw %class.TestData, ptr %13, i32 0, i32 4
  store ptr %28, ptr %34, align 8, !tbaa !18
  br label %46

35:                                               ; preds = %27
  %36 = landingpad { ptr, i32 }
          cleanup
  %37 = extractvalue { ptr, i32 } %36, 0
  store ptr %37, ptr %10, align 8
  %38 = extractvalue { ptr, i32 } %36, 1
  store i32 %38, ptr %11, align 4
  call void @_ZdlPvm(ptr noundef %28, i64 noundef 16) #12
  call void @llvm.lifetime.end.p0(i64 8, ptr %9) #9
  call void @llvm.lifetime.end.p0(i64 4, ptr %8) #9
  br label %55

39:                                               ; preds = %23
  %40 = getelementptr inbounds nuw %class.TestData, ptr %13, i32 0, i32 4
  %41 = load ptr, ptr %40, align 8, !tbaa !18
  %42 = getelementptr inbounds nuw %class.RBTestData, ptr %13, i32 0, i32 2
  %43 = load ptr, ptr %42, align 8, !tbaa !28
  %44 = load ptr, ptr %9, align 8, !tbaa !31
  %45 = load ptr, ptr %7, align 8, !tbaa !32
  call void @_ZN9RBDataMap4initEP15UResourceBundleS1_R10UErrorCode(ptr noundef nonnull align 8 dereferenceable(16) %41, ptr noundef %43, ptr noundef %44, ptr noundef nonnull align 4 dereferenceable(4) %45)
  br label %46

46:                                               ; preds = %39, %33
  %47 = load ptr, ptr %9, align 8, !tbaa !31
  call void @ures_close_77(ptr noundef %47)
  %48 = getelementptr inbounds nuw %class.TestData, ptr %13, i32 0, i32 4
  %49 = load ptr, ptr %48, align 8, !tbaa !18
  %50 = load ptr, ptr %6, align 8, !tbaa !35
  store ptr %49, ptr %50, align 8, !tbaa !38
  store i8 1, ptr %4, align 1
  store i32 1, ptr %12, align 4
  br label %53

51:                                               ; preds = %3
  %52 = load ptr, ptr %6, align 8, !tbaa !35
  store ptr null, ptr %52, align 8, !tbaa !38
  store i8 0, ptr %4, align 1
  store i32 1, ptr %12, align 4
  br label %53

53:                                               ; preds = %51, %46
  call void @llvm.lifetime.end.p0(i64 8, ptr %9) #9
  call void @llvm.lifetime.end.p0(i64 4, ptr %8) #9
  %54 = load i8, ptr %4, align 1
  ret i8 %54

55:                                               ; preds = %35
  %56 = load ptr, ptr %10, align 8
  %57 = load i32, ptr %11, align 4
  %58 = insertvalue { ptr, i32 } poison, ptr %56, 0
  %59 = insertvalue { ptr, i32 } %58, i32 %57, 1
  resume { ptr, i32 } %59
}