; Function Attrs: mustprogress uwtable
define noundef signext range(i8 0, 2) i8 @_ZN10RBTestData8nextCaseERPK7DataMapR10UErrorCode(ptr noundef nonnull align 8 captures(none) dereferenceable(88) %0, ptr noundef nonnull writeonly align 8 captures(none) dereferenceable(8) %1, ptr noundef nonnull align 4 dereferenceable(4) %2) unnamed_addr #5 align 2 personality ptr @__gxx_personality_v0 {
  %4 = alloca i32, align 4
  call void @llvm.lifetime.start.p0(i64 4, ptr nonnull %4) #14
  store i32 0, ptr %4, align 4, !tbaa !20
  %5 = getelementptr inbounds nuw i8, ptr %0, i64 80
  %6 = load ptr, ptr %5, align 8, !tbaa !24
  %7 = getelementptr inbounds nuw i8, ptr %0, i64 52
  %8 = load i32, ptr %7, align 4, !tbaa !28
  %9 = add nsw i32 %8, 1
  store i32 %9, ptr %7, align 4, !tbaa !28
  %10 = call ptr @ures_getByIndex_77(ptr noundef %6, i32 noundef %8, ptr noundef null, ptr noundef nonnull %4)
  %11 = load i32, ptr %4, align 4, !tbaa !20
  %12 = icmp sgt i32 %11, 0
  br i1 %12, label %29, label %13

13:                                               ; preds = %3
  %14 = getelementptr inbounds nuw i8, ptr %0, i64 32
  %15 = load ptr, ptr %14, align 8, !tbaa !15
  %16 = icmp eq ptr %15, null
  br i1 %16, label %17, label %24

17:                                               ; preds = %13
  %18 = call noalias noundef nonnull dereferenceable(16) ptr @_Znwm(i64 noundef 16) #16
  %19 = getelementptr inbounds nuw i8, ptr %0, i64 64
  %20 = load ptr, ptr %19, align 8, !tbaa !19
  invoke void @_ZN9RBDataMapC1EP15UResourceBundleS1_R10UErrorCode(ptr noundef nonnull align 8 dereferenceable(16) %18, ptr noundef %20, ptr noundef %10, ptr noundef nonnull align 4 dereferenceable(4) %2)
          to label %21 unwind label %22

21:                                               ; preds = %17
  store ptr %18, ptr %14, align 8, !tbaa !15
  br label %27

22:                                               ; preds = %17
  %23 = landingpad { ptr, i32 }
          cleanup
  call void @_ZdlPvm(ptr noundef nonnull %18, i64 noundef 16) #17
  call void @llvm.lifetime.end.p0(i64 4, ptr nonnull %4) #14
  resume { ptr, i32 } %23

24:                                               ; preds = %13
  %25 = getelementptr inbounds nuw i8, ptr %0, i64 64
  %26 = load ptr, ptr %25, align 8, !tbaa !19
  call void @_ZN9RBDataMap4initEP15UResourceBundleS1_R10UErrorCode(ptr noundef nonnull align 8 dereferenceable(16) %15, ptr noundef %26, ptr noundef %10, ptr noundef nonnull align 4 dereferenceable(4) %2)
  br label %27

27:                                               ; preds = %24, %21
  call void @ures_close_77(ptr noundef %10)
  %28 = load ptr, ptr %14, align 8, !tbaa !15
  br label %29

29:                                               ; preds = %3, %27
  %storemerge = phi ptr [ %28, %27 ], [ null, %3 ]
  %.0 = phi i8 [ 1, %27 ], [ 0, %3 ]
  store ptr %storemerge, ptr %1, align 8, !tbaa !26
  call void @llvm.lifetime.end.p0(i64 4, ptr nonnull %4) #14
  ret i8 %.0
}